; Function Attrs: mustprogress uwtable
define dso_local void @_ZN11cmExportSet15AddTargetExportESt10unique_ptrI14cmTargetExportSt14default_deleteIS1_EE(ptr noundef nonnull align 8 dereferenceable(132) %0, ptr noundef %1) local_unnamed_addr #6 align 2 {
  %3 = getelementptr inbounds nuw i8, ptr %0, i64 8
  %4 = load ptr, ptr %3, align 8, !tbaa !45
  %5 = getelementptr inbounds nuw i8, ptr %0, i64 16
  %6 = load ptr, ptr %5, align 8, !tbaa !46
  %.not.i = icmp eq ptr %4, %6
  br i1 %.not.i, label %10, label %7

7:                                                ; preds = %2
  %8 = load i64, ptr %1, align 8, !tbaa !59
  store i64 %8, ptr %4, align 8, !tbaa !59
  store ptr null, ptr %1, align 8, !tbaa !59
  %9 = getelementptr inbounds nuw i8, ptr %4, i64 8
  store ptr %9, ptr %3, align 8, !tbaa !45
  br label %_ZNSt6vectorISt10unique_ptrI14cmTargetExportSt14default_deleteIS1_EESaIS4_EE12emplace_backIJS4_EEERS4_DpOT_.exit

10:                                               ; preds = %2
  tail call void @_ZNSt6vectorISt10unique_ptrI14cmTargetExportSt14default_deleteIS1_EESaIS4_EE17_M_realloc_insertIJS4_EEEvN9__gnu_cxx17__normal_iteratorIPS4_S6_EEDpOT_(ptr noundef nonnull align 8 dereferenceable(24) %0, ptr %4, ptr noundef nonnull align 8 dereferenceable(8) %1)
  br label %_ZNSt6vectorISt10unique_ptrI14cmTargetExportSt14default_deleteIS1_EESaIS4_EE12emplace_backIJS4_EEERS4_DpOT_.exit

_ZNSt6vectorISt10unique_ptrI14cmTargetExportSt14default_deleteIS1_EESaIS4_EE12emplace_backIJS4_EEERS4_DpOT_.exit: ; preds = %7, %10
  ret void
}